; Function Attrs: nounwind uwtable
define void @lv_subject_set_color(ptr noundef %0, i24 %1) local_unnamed_addr #0 {
  %3 = getelementptr inbounds nuw i8, ptr %0, i64 48
  %4 = load i32, ptr %3, align 8
  %5 = and i32 %4, 15
  %.not = icmp eq i32 %5, 4
  br i1 %.not, label %6, label %lv_subject_notify_if_changed.exit

6:                                                ; preds = %2
  %7 = getelementptr inbounds nuw i8, ptr %0, i64 32
  %8 = getelementptr inbounds nuw i8, ptr %0, i64 24
  tail call void @llvm.memcpy.p0.p0.i64(ptr noundef nonnull align 8 dereferenceable(3) %7, ptr noundef nonnull align 8 dereferenceable(3) %8, i64 3, i1 false), !tbaa.struct !6
  store i24 %1, ptr %8, align 8
  %.0.copyload.i = load i24, ptr %7, align 8
  %9 = tail call zeroext i1 @lv_color_eq(i24 %1, i24 %.0.copyload.i) #9
  br i1 %9, label %lv_subject_notify_if_changed.exit, label %.sink.split.i

.sink.split.i:                                    ; preds = %6
  tail call void @lv_subject_notify(ptr noundef nonnull %0)
  br label %lv_subject_notify_if_changed.exit

lv_subject_notify_if_changed.exit:                ; preds = %.sink.split.i, %6, %2
  ret void
}